; ModuleID = 'probe1.71cb626e88d129ad-cgu.0'
source_filename = "probe1.71cb626e88d129ad-cgu.0"
target datalayout = "e-m:w-p270:32:32-p271:32:32-p272:64:64-i64:64-i128:128-f80:128-n8:16:32:64-S128"
target triple = "x86_64-pc-windows-msvc"

; core::f64::<impl f64>::to_int_unchecked
; Function Attrs: inlinehint uwtable
define i32 @"_ZN4core3f6421_$LT$impl$u20$f64$GT$16to_int_unchecked17h9ea05dc79db01f96E"(double %self) unnamed_addr #0 {
start:
; call <f64 as core::convert::num::FloatToInt<i32>>::to_int_unchecked
  %_0 = call i32 @"_ZN65_$LT$f64$u20$as$u20$core..convert..num..FloatToInt$LT$i32$GT$$GT$16to_int_unchecked17h1b39ea3c6013755eE"(double %self)
  ret i32 %_0
}

; <f64 as core::convert::num::FloatToInt<i32>>::to_int_unchecked
; Function Attrs: inlinehint uwtable
define internal i32 @"_ZN65_$LT$f64$u20$as$u20$core..convert..num..FloatToInt$LT$i32$GT$$GT$16to_int_unchecked17h1b39ea3c6013755eE"(double %self) unnamed_addr #0 {
start:
  %0 = alloca i32, align 4
  %1 = fptosi double %self to i32
  store i32 %1, ptr %0, align 4
  %_0 = load i32, ptr %0, align 4, !noundef !2
  ret i32 %_0
}

; probe1::probe
; Function Attrs: uwtable
define void @_ZN6probe15probe17h094a230b4cbe32afE() unnamed_addr #1 {
start:
; call core::f64::<impl f64>::to_int_unchecked
  %_1 = call i32 @"_ZN4core3f6421_$LT$impl$u20$f64$GT$16to_int_unchecked17h9ea05dc79db01f96E"(double 1.000000e+00)
  ret void
}

attributes #0 = { inlinehint uwtable "target-cpu"="x86-64" "target-features"="+cx16,+sse3,+sahf" }
attributes #1 = { uwtable "target-cpu"="x86-64" "target-features"="+cx16,+sse3,+sahf" }

!llvm.module.flags = !{!0}
!llvm.ident = !{!1}

!0 = !{i32 8, !"PIC Level", i32 2}
!1 = !{!"rustc version 1.78.0 (9b00956e5 2024-04-29)"}
!2 = !{}
